target datalayout = "e-m:e-p270:32:32-p271:32:32-p272:64:64-i64:64-i128:128-f80:128-n8:16:32:64-S128"
target triple = "x86_64-pc-linux-gnu"

; Function Attrs: nounwind uwtable
define i32 @hwloc_pcidisc_find_cap(ptr noundef %0, i32 noundef %1) #0 {
  %3 = alloca i32, align 4
  %4 = alloca ptr, align 8
  %5 = alloca i32, align 4
  %6 = alloca [256 x i8], align 16
  %7 = alloca i8, align 1
  %8 = alloca i32, align 4
  %9 = alloca i8, align 1
  store ptr %0, ptr %4, align 8, !tbaa !38
  store i32 %1, ptr %5, align 4, !tbaa !40
  call void @llvm.lifetime.start.p0(i64 256, ptr %6) #12
  call void @llvm.memset.p0.i64(ptr align 16 %6, i8 0, i64 256, i1 false)
  call void @llvm.lifetime.start.p0(i64 1, ptr %7) #12
  %10 = load ptr, ptr %4, align 8, !tbaa !38
  %11 = getelementptr inbounds i8, ptr %10, i64 6
  %12 = load i8, ptr %11, align 1, !tbaa !44
  %13 = zext i8 %12 to i32
  %14 = and i32 %13, 16
  %15 = icmp ne i32 %14, 0
  br i1 %15, label %17, label %16

16:                                               ; preds = %2
  store i32 0, ptr %3, align 4
  store i32 1, ptr %8, align 4
  br label %73

17:                                               ; preds = %2
  %18 = load ptr, ptr %4, align 8, !tbaa !38
  %19 = getelementptr inbounds i8, ptr %18, i64 52
  %20 = load i8, ptr %19, align 1, !tbaa !44
  %21 = zext i8 %20 to i32
  %22 = and i32 %21, -4
  %23 = trunc i32 %22 to i8
  store i8 %23, ptr %7, align 1, !tbaa !44
  br label %24

24:                                               ; preds = %61, %17
  %25 = load i8, ptr %7, align 1, !tbaa !44
  %26 = icmp ne i8 %25, 0
  br i1 %26, label %27, label %72

27:                                               ; preds = %24
  call void @llvm.lifetime.start.p0(i64 1, ptr %9) #12
  %28 = load i8, ptr %7, align 1, !tbaa !44
  %29 = zext i8 %28 to i64
  %30 = getelementptr inbounds nuw [256 x i8], ptr %6, i64 0, i64 %29
  %31 = load i8, ptr %30, align 1, !tbaa !44
  %32 = icmp ne i8 %31, 0
  br i1 %32, label %33, label %34

33:                                               ; preds = %27
  store i32 2, ptr %8, align 4
  br label %58

34:                                               ; preds = %27
  %35 = load i8, ptr %7, align 1, !tbaa !44
  %36 = zext i8 %35 to i64
  %37 = getelementptr inbounds nuw [256 x i8], ptr %6, i64 0, i64 %36
  store i8 1, ptr %37, align 1, !tbaa !44
  %38 = load ptr, ptr %4, align 8, !tbaa !38
  %39 = load i8, ptr %7, align 1, !tbaa !44
  %40 = zext i8 %39 to i32
  %41 = add nsw i32 %40, 0
  %42 = sext i32 %41 to i64
  %43 = getelementptr inbounds i8, ptr %38, i64 %42
  %44 = load i8, ptr %43, align 1, !tbaa !44
  store i8 %44, ptr %9, align 1, !tbaa !44
  %45 = load i8, ptr %9, align 1, !tbaa !44
  %46 = zext i8 %45 to i32
  %47 = load i32, ptr %5, align 4, !tbaa !40
  %48 = icmp eq i32 %46, %47
  br i1 %48, label %49, label %52

49:                                               ; preds = %34
  %50 = load i8, ptr %7, align 1, !tbaa !44
  %51 = zext i8 %50 to i32
  store i32 %51, ptr %3, align 4
  store i32 1, ptr %8, align 4
  br label %58

52:                                               ; preds = %34
  %53 = load i8, ptr %9, align 1, !tbaa !44
  %54 = zext i8 %53 to i32
  %55 = icmp eq i32 %54, 255
  br i1 %55, label %56, label %57

56:                                               ; preds = %52
  store i32 2, ptr %8, align 4
  br label %58

57:                                               ; preds = %52
  store i32 0, ptr %8, align 4
  br label %58

58:                                               ; preds = %57, %56, %49, %33
  call void @llvm.lifetime.end.p0(i64 1, ptr %9) #12
  %59 = load i32, ptr %8, align 4
  switch i32 %59, label %73 [
    i32 0, label %60
    i32 2, label %72
  ]

60:                                               ; preds = %58
  br label %61

61:                                               ; preds = %60
  %62 = load ptr, ptr %4, align 8, !tbaa !38
  %63 = load i8, ptr %7, align 1, !tbaa !44
  %64 = zext i8 %63 to i32
  %65 = add nsw i32 %64, 1
  %66 = sext i32 %65 to i64
  %67 = getelementptr inbounds i8, ptr %62, i64 %66
  %68 = load i8, ptr %67, align 1, !tbaa !44
  %69 = zext i8 %68 to i32
  %70 = and i32 %69, -4
  %71 = trunc i32 %70 to i8
  store i8 %71, ptr %7, align 1, !tbaa !44
  br label %24, !llvm.loop !100

72:                                               ; preds = %58, %24
  store i32 0, ptr %3, align 4
  store i32 1, ptr %8, align 4
  br label %73

73:                                               ; preds = %72, %58, %16
  call void @llvm.lifetime.end.p0(i64 1, ptr %7) #12
  call void @llvm.lifetime.end.p0(i64 256, ptr %6) #12
  %74 = load i32, ptr %3, align 4
  ret i32 %74
}